target datalayout = "e-m:e-p270:32:32-p271:32:32-p272:64:64-i64:64-i128:128-f80:128-n8:16:32:64-S128"
target triple = "x86_64-pc-linux-gnu"

%struct.ImVec2 = type { float, float }
%struct.ImRect = type { %struct.ImVec2, %struct.ImVec2 }
%struct.ImGuiTextBuffer = type { %struct.ImVector.34 }
%struct.ImVector.34 = type { i32, i32, ptr }
%struct.ImGuiTabBar = type { ptr, %struct.ImVector.43, i32, i32, i32, i32, i32, i32, i32, %struct.ImRect, float, float, float, float, float, float, float, float, float, float, float, float, i32, i16, i8, i8, i8, i8, i16, i16, float, %struct.ImVec2, %struct.ImVec2, %struct.ImGuiTextBuffer }
%struct.ImVector.43 = type { i32, i32, ptr }
%struct.ImGuiTabItem = type <{ i32, i32, i32, i32, float, float, float, float, i32, i16, i16, i8, [3 x i8] }>

; Function Attrs: inlinehint mustprogress nounwind uwtable
define linkonce_odr dso_local noundef nonnull align 4 dereferenceable(41) ptr @_ZN8ImVectorI12ImGuiTabItemEixEi(ptr noundef nonnull align 8 dereferenceable(16) %0, i32 noundef %1) #2 comdat align 2 {
  %3 = alloca ptr, align 8
  %4 = alloca i32, align 4
  store ptr %0, ptr %3, align 8, !tbaa !814
  store i32 %1, ptr %4, align 4, !tbaa !9
  %5 = load ptr, ptr %3, align 8
  %6 = getelementptr inbounds nuw %struct.ImVector.43, ptr %5, i32 0, i32 2
  %7 = load ptr, ptr %6, align 8, !tbaa !818
  %8 = load i32, ptr %4, align 4, !tbaa !9
  %9 = sext i32 %8 to i64
  %10 = getelementptr inbounds %struct.ImGuiTabItem, ptr %7, i64 %9
  ret ptr %10
}

; Function Attrs: inlinehint mustprogress nounwind uwtable
define linkonce_odr dso_local noundef ptr @_ZN8ImVectorI12ImGuiTabItemE5eraseEPKS0_(ptr noundef nonnull align 8 dereferenceable(16) %0, ptr noundef %1) #2 comdat align 2 {
  %3 = alloca ptr, align 8
  %4 = alloca ptr, align 8
  %5 = alloca i64, align 8
  store ptr %0, ptr %3, align 8, !tbaa !814
  store ptr %1, ptr %4, align 8, !tbaa !849
  %6 = load ptr, ptr %3, align 8
  call void @llvm.lifetime.start.p0(i64 8, ptr %5) #17
  %7 = load ptr, ptr %4, align 8, !tbaa !849
  %8 = getelementptr inbounds nuw %struct.ImVector.43, ptr %6, i32 0, i32 2
  %9 = load ptr, ptr %8, align 8, !tbaa !818
  %10 = ptrtoint ptr %7 to i64
  %11 = ptrtoint ptr %9 to i64
  %12 = sub i64 %10, %11
  %13 = sdiv exact i64 %12, 44
  store i64 %13, ptr %5, align 8, !tbaa !241
  %14 = getelementptr inbounds nuw %struct.ImVector.43, ptr %6, i32 0, i32 2
  %15 = load ptr, ptr %14, align 8, !tbaa !818
  %16 = load i64, ptr %5, align 8, !tbaa !241
  %17 = getelementptr inbounds %struct.ImGuiTabItem, ptr %15, i64 %16
  %18 = getelementptr inbounds nuw %struct.ImVector.43, ptr %6, i32 0, i32 2
  %19 = load ptr, ptr %18, align 8, !tbaa !818
  %20 = load i64, ptr %5, align 8, !tbaa !241
  %21 = getelementptr inbounds %struct.ImGuiTabItem, ptr %19, i64 %20
  %22 = getelementptr inbounds %struct.ImGuiTabItem, ptr %21, i64 1
  %23 = getelementptr inbounds nuw %struct.ImVector.43, ptr %6, i32 0, i32 0
  %24 = load i32, ptr %23, align 8, !tbaa !817
  %25 = sext i32 %24 to i64
  %26 = load i64, ptr %5, align 8, !tbaa !241
  %27 = sub i64 %25, %26
  %28 = sub i64 %27, 1
  %29 = mul i64 %28, 44
  call void @llvm.memmove.p0.p0.i64(ptr align 4 %17, ptr align 4 %22, i64 %29, i1 false)
  %30 = getelementptr inbounds nuw %struct.ImVector.43, ptr %6, i32 0, i32 0
  %31 = load i32, ptr %30, align 8, !tbaa !817
  %32 = add nsw i32 %31, -1
  store i32 %32, ptr %30, align 8, !tbaa !817
  %33 = getelementptr inbounds nuw %struct.ImVector.43, ptr %6, i32 0, i32 2
  %34 = load ptr, ptr %33, align 8, !tbaa !818
  %35 = load i64, ptr %5, align 8, !tbaa !241
  %36 = getelementptr inbounds %struct.ImGuiTabItem, ptr %34, i64 %35
  call void @llvm.lifetime.end.p0(i64 8, ptr %5) #17
  ret ptr %36
}

; Function Attrs: mustprogress uwtable
define dso_local noundef ptr @_ZN5ImGui17TabBarFindTabByIDEP11ImGuiTabBarj(ptr noundef %0, i32 noundef %1) #8 {
  %3 = alloca ptr, align 8
  %4 = alloca ptr, align 8
  %5 = alloca i32, align 4
  %6 = alloca i32, align 4
  %7 = alloca i32, align 4
  store ptr %0, ptr %4, align 8, !tbaa !807
  store i32 %1, ptr %5, align 4, !tbaa !9
  %8 = load i32, ptr %5, align 4, !tbaa !9
  %9 = icmp ne i32 %8, 0
  br i1 %9, label %10, label %40

10:                                               ; preds = %2
  call void @llvm.lifetime.start.p0(i64 4, ptr %6) #17
  store i32 0, ptr %6, align 4, !tbaa !9
  br label %11

11:                                               ; preds = %34, %10
  %12 = load i32, ptr %6, align 4, !tbaa !9
  %13 = load ptr, ptr %4, align 8, !tbaa !807
  %14 = getelementptr inbounds nuw %struct.ImGuiTabBar, ptr %13, i32 0, i32 1
  %15 = getelementptr inbounds nuw %struct.ImVector.43, ptr %14, i32 0, i32 0
  %16 = load i32, ptr %15, align 8, !tbaa !837
  %17 = icmp slt i32 %12, %16
  br i1 %17, label %19, label %18

18:                                               ; preds = %11
  store i32 2, ptr %7, align 4
  br label %37

19:                                               ; preds = %11
  %20 = load ptr, ptr %4, align 8, !tbaa !807
  %21 = getelementptr inbounds nuw %struct.ImGuiTabBar, ptr %20, i32 0, i32 1
  %22 = load i32, ptr %6, align 4, !tbaa !9
  %23 = call noundef nonnull align 4 dereferenceable(41) ptr @_ZN8ImVectorI12ImGuiTabItemEixEi(ptr noundef nonnull align 8 dereferenceable(16) %21, i32 noundef %22)
  %24 = getelementptr inbounds nuw %struct.ImGuiTabItem, ptr %23, i32 0, i32 0
  %25 = load i32, ptr %24, align 4, !tbaa !856
  %26 = load i32, ptr %5, align 4, !tbaa !9
  %27 = icmp eq i32 %25, %26
  br i1 %27, label %28, label %33

28:                                               ; preds = %19
  %29 = load ptr, ptr %4, align 8, !tbaa !807
  %30 = getelementptr inbounds nuw %struct.ImGuiTabBar, ptr %29, i32 0, i32 1
  %31 = load i32, ptr %6, align 4, !tbaa !9
  %32 = call noundef nonnull align 4 dereferenceable(41) ptr @_ZN8ImVectorI12ImGuiTabItemEixEi(ptr noundef nonnull align 8 dereferenceable(16) %30, i32 noundef %31)
  store ptr %32, ptr %3, align 8
  store i32 1, ptr %7, align 4
  br label %37

33:                                               ; preds = %19
  br label %34

34:                                               ; preds = %33
  %35 = load i32, ptr %6, align 4, !tbaa !9
  %36 = add nsw i32 %35, 1
  store i32 %36, ptr %6, align 4, !tbaa !9
  br label %11, !llvm.loop !897

37:                                               ; preds = %28, %18
  call void @llvm.lifetime.end.p0(i64 4, ptr %6) #17
  %38 = load i32, ptr %7, align 4
  switch i32 %38, label %43 [
    i32 2, label %39
    i32 1, label %41
  ]

39:                                               ; preds = %37
  br label %40

40:                                               ; preds = %39, %2
  store ptr null, ptr %3, align 8
  br label %41

41:                                               ; preds = %40, %37
  %42 = load ptr, ptr %3, align 8
  ret ptr %42

43:                                               ; preds = %37
  unreachable
}

; Function Attrs: mustprogress uwtable
define dso_local void @_ZN5ImGui15TabBarRemoveTabEP11ImGuiTabBarj(ptr noundef %0, i32 noundef %1) #8 {
  %3 = alloca ptr, align 8
  %4 = alloca i32, align 4
  %5 = alloca ptr, align 8
  store ptr %0, ptr %3, align 8, !tbaa !807
  store i32 %1, ptr %4, align 4, !tbaa !9
  call void @llvm.lifetime.start.p0(i64 8, ptr %5) #17
  %6 = load ptr, ptr %3, align 8, !tbaa !807
  %7 = load i32, ptr %4, align 4, !tbaa !9
  %8 = call noundef ptr @_ZN5ImGui17TabBarFindTabByIDEP11ImGuiTabBarj(ptr noundef %6, i32 noundef %7)
  store ptr %8, ptr %5, align 8, !tbaa !849
  %9 = load ptr, ptr %5, align 8, !tbaa !849
  %10 = icmp ne ptr %9, null
  br i1 %10, label %11, label %16

11:                                               ; preds = %2
  %12 = load ptr, ptr %3, align 8, !tbaa !807
  %13 = getelementptr inbounds nuw %struct.ImGuiTabBar, ptr %12, i32 0, i32 1
  %14 = load ptr, ptr %5, align 8, !tbaa !849
  %15 = call noundef ptr @_ZN8ImVectorI12ImGuiTabItemE5eraseEPKS0_(ptr noundef nonnull align 8 dereferenceable(16) %13, ptr noundef %14)
  br label %16

16:                                               ; preds = %11, %2
  call void @llvm.lifetime.end.p0(i64 8, ptr %5) #17
  %17 = load ptr, ptr %3, align 8, !tbaa !807
  %18 = getelementptr inbounds nuw %struct.ImGuiTabBar, ptr %17, i32 0, i32 6
  %19 = load i32, ptr %18, align 8, !tbaa !853
  %20 = load i32, ptr %4, align 4, !tbaa !9
  %21 = icmp eq i32 %19, %20
  br i1 %21, label %22, label %25

22:                                               ; preds = %16
  %23 = load ptr, ptr %3, align 8, !tbaa !807
  %24 = getelementptr inbounds nuw %struct.ImGuiTabBar, ptr %23, i32 0, i32 6
  store i32 0, ptr %24, align 8, !tbaa !853
  br label %25

25:                                               ; preds = %22, %16
  %26 = load ptr, ptr %3, align 8, !tbaa !807
  %27 = getelementptr inbounds nuw %struct.ImGuiTabBar, ptr %26, i32 0, i32 4
  %28 = load i32, ptr %27, align 8, !tbaa !857
  %29 = load i32, ptr %4, align 4, !tbaa !9
  %30 = icmp eq i32 %28, %29
  br i1 %30, label %31, label %34

31:                                               ; preds = %25
  %32 = load ptr, ptr %3, align 8, !tbaa !807
  %33 = getelementptr inbounds nuw %struct.ImGuiTabBar, ptr %32, i32 0, i32 4
  store i32 0, ptr %33, align 8, !tbaa !857
  br label %34

34:                                               ; preds = %31, %25
  %35 = load ptr, ptr %3, align 8, !tbaa !807
  %36 = getelementptr inbounds nuw %struct.ImGuiTabBar, ptr %35, i32 0, i32 5
  %37 = load i32, ptr %36, align 4, !tbaa !858
  %38 = load i32, ptr %4, align 4, !tbaa !9
  %39 = icmp eq i32 %37, %38
  br i1 %39, label %40, label %43

40:                                               ; preds = %34
  %41 = load ptr, ptr %3, align 8, !tbaa !807
  %42 = getelementptr inbounds nuw %struct.ImGuiTabBar, ptr %41, i32 0, i32 5
  store i32 0, ptr %42, align 4, !tbaa !858
  br label %43

43:                                               ; preds = %40, %34
  ret void
}