; Function Attrs: mustprogress nofree norecurse nosync nounwind memory(readwrite, inaccessiblemem: none) uwtable
define dso_local void @_ZN5ImGui15TabBarRemoveTabEP11ImGuiTabBarj(ptr noundef captures(none) %0, i32 noundef %1) local_unnamed_addr #28 {
  %.not.i = icmp eq i32 %1, 0
  br i1 %.not.i, label %_ZN5ImGui17TabBarFindTabByIDEP11ImGuiTabBarj.exit.thread, label %.preheader.i

.preheader.i:                                     ; preds = %2
  %3 = getelementptr inbounds nuw i8, ptr %0, i64 8
  %4 = load i32, ptr %3, align 8, !tbaa !738
  %5 = icmp sgt i32 %4, 0
  br i1 %5, label %.lr.ph.i, label %_ZN5ImGui17TabBarFindTabByIDEP11ImGuiTabBarj.exit.thread

.lr.ph.i:                                         ; preds = %.preheader.i
  %6 = getelementptr inbounds nuw i8, ptr %0, i64 16
  %7 = load ptr, ptr %6, align 8, !tbaa !751
  %wide.trip.count.i = zext nneg i32 %4 to i64
  br label %9

8:                                                ; preds = %9
  %indvars.iv.next.i = add nuw nsw i64 %indvars.iv.i, 1
  %exitcond.not.i = icmp eq i64 %indvars.iv.next.i, %wide.trip.count.i
  br i1 %exitcond.not.i, label %_ZN5ImGui17TabBarFindTabByIDEP11ImGuiTabBarj.exit.thread, label %9, !llvm.loop !767

9:                                                ; preds = %8, %.lr.ph.i
  %indvars.iv.i = phi i64 [ 0, %.lr.ph.i ], [ %indvars.iv.next.i, %8 ]
  %10 = getelementptr inbounds nuw %struct.ImGuiTabItem, ptr %7, i64 %indvars.iv.i
  %11 = load i32, ptr %10, align 4, !tbaa !754
  %12 = icmp eq i32 %11, %1
  br i1 %12, label %_ZN5ImGui17TabBarFindTabByIDEP11ImGuiTabBarj.exit, label %8

_ZN5ImGui17TabBarFindTabByIDEP11ImGuiTabBarj.exit: ; preds = %9
  %13 = getelementptr inbounds nuw i8, ptr %10, i64 44
  %14 = zext nneg i32 %4 to i64
  %15 = xor i64 %indvars.iv.i, -1
  %16 = add nsw i64 %15, %14
  %17 = mul i64 %16, 44
  tail call void @llvm.memmove.p0.p0.i64(ptr nonnull align 4 %10, ptr nonnull align 4 %13, i64 %17, i1 false)
  %18 = load i32, ptr %3, align 8, !tbaa !764
  %19 = add nsw i32 %18, -1
  store i32 %19, ptr %3, align 8, !tbaa !764
  br label %_ZN5ImGui17TabBarFindTabByIDEP11ImGuiTabBarj.exit.thread

_ZN5ImGui17TabBarFindTabByIDEP11ImGuiTabBarj.exit.thread: ; preds = %8, %.preheader.i, %2, %_ZN5ImGui17TabBarFindTabByIDEP11ImGuiTabBarj.exit
  %20 = getelementptr inbounds nuw i8, ptr %0, i64 40
  %21 = load i32, ptr %20, align 8, !tbaa !748
  %22 = icmp eq i32 %21, %1
  br i1 %22, label %23, label %24

23:                                               ; preds = %_ZN5ImGui17TabBarFindTabByIDEP11ImGuiTabBarj.exit.thread
  store i32 0, ptr %20, align 8, !tbaa !748
  br label %24

24:                                               ; preds = %23, %_ZN5ImGui17TabBarFindTabByIDEP11ImGuiTabBarj.exit.thread
  %25 = getelementptr inbounds nuw i8, ptr %0, i64 32
  %26 = load i32, ptr %25, align 8, !tbaa !755
  %27 = icmp eq i32 %26, %1
  br i1 %27, label %28, label %29

28:                                               ; preds = %24
  store i32 0, ptr %25, align 8, !tbaa !755
  br label %29

29:                                               ; preds = %28, %24
  %30 = getelementptr inbounds nuw i8, ptr %0, i64 36
  %31 = load i32, ptr %30, align 4, !tbaa !756
  %32 = icmp eq i32 %31, %1
  br i1 %32, label %33, label %34

33:                                               ; preds = %29
  store i32 0, ptr %30, align 4, !tbaa !756
  br label %34

34:                                               ; preds = %33, %29
  ret void
}